target datalayout = "e-m:e-p270:32:32-p271:32:32-p272:64:64-i64:64-i128:128-f80:128-n8:16:32:64-S128"
target triple = "x86_64-pc-linux-gnu"

@hf_cigi3_maritime_surface_conditions_control_entity_region_id = internal global i32 0, align 4
@hf_cigi3_maritime_surface_conditions_control_surface_conditions_enable = internal global i32 0, align 4
@hf_cigi3_maritime_surface_conditions_control_whitecap_enable = internal global i32 0, align 4
@hf_cigi3_maritime_surface_conditions_control_scope = internal global i32 0, align 4
@hf_cigi3_maritime_surface_conditions_control_sea_surface_height = internal global i32 0, align 4
@hf_cigi3_maritime_surface_conditions_control_surface_water_temp = internal global i32 0, align 4
@hf_cigi3_maritime_surface_conditions_control_surface_clarity = internal global i32 0, align 4
@cigi_byte_order = internal global i32 0, align 4

; Function Attrs: null_pointer_is_valid sspstrong uwtable
define internal i32 @cigi3_add_maritime_surface_conditions_control(ptr noundef %0, ptr noundef %1, ptr noundef %2, ptr noundef %3) #0 {
  %5 = alloca ptr, align 8
  %6 = alloca ptr, align 8
  %7 = alloca ptr, align 8
  %8 = alloca ptr, align 8
  %9 = alloca i32, align 4
  store ptr %0, ptr %5, align 8
  store ptr %1, ptr %6, align 8
  store ptr %2, ptr %7, align 8
  store ptr %3, ptr %8, align 8
  call void @llvm.lifetime.start.p0(i64 4, ptr %9) #5
  store i32 0, ptr %9, align 4
  %10 = load ptr, ptr %7, align 8
  %11 = load i32, ptr @hf_cigi3_maritime_surface_conditions_control_entity_region_id, align 4
  %12 = load ptr, ptr %5, align 8
  %13 = load i32, ptr %9, align 4
  %14 = load i32, ptr @cigi_byte_order, align 4
  %15 = call ptr @proto_tree_add_item(ptr noundef %10, i32 noundef %11, ptr noundef %12, i32 noundef %13, i32 noundef 2, i32 noundef %14)
  %16 = load i32, ptr %9, align 4
  %17 = add i32 %16, 2
  store i32 %17, ptr %9, align 4
  %18 = load ptr, ptr %7, align 8
  %19 = load i32, ptr @hf_cigi3_maritime_surface_conditions_control_surface_conditions_enable, align 4
  %20 = load ptr, ptr %5, align 8
  %21 = load i32, ptr %9, align 4
  %22 = load i32, ptr @cigi_byte_order, align 4
  %23 = call ptr @proto_tree_add_item(ptr noundef %18, i32 noundef %19, ptr noundef %20, i32 noundef %21, i32 noundef 1, i32 noundef %22)
  %24 = load ptr, ptr %7, align 8
  %25 = load i32, ptr @hf_cigi3_maritime_surface_conditions_control_whitecap_enable, align 4
  %26 = load ptr, ptr %5, align 8
  %27 = load i32, ptr %9, align 4
  %28 = load i32, ptr @cigi_byte_order, align 4
  %29 = call ptr @proto_tree_add_item(ptr noundef %24, i32 noundef %25, ptr noundef %26, i32 noundef %27, i32 noundef 1, i32 noundef %28)
  %30 = load ptr, ptr %7, align 8
  %31 = load i32, ptr @hf_cigi3_maritime_surface_conditions_control_scope, align 4
  %32 = load ptr, ptr %5, align 8
  %33 = load i32, ptr %9, align 4
  %34 = load i32, ptr @cigi_byte_order, align 4
  %35 = call ptr @proto_tree_add_item(ptr noundef %30, i32 noundef %31, ptr noundef %32, i32 noundef %33, i32 noundef 1, i32 noundef %34)
  %36 = load i32, ptr %9, align 4
  %37 = add i32 %36, 4
  store i32 %37, ptr %9, align 4
  %38 = load ptr, ptr %7, align 8
  %39 = load i32, ptr @hf_cigi3_maritime_surface_conditions_control_sea_surface_height, align 4
  %40 = load ptr, ptr %5, align 8
  %41 = load i32, ptr %9, align 4
  %42 = load i32, ptr @cigi_byte_order, align 4
  %43 = call ptr @proto_tree_add_item(ptr noundef %38, i32 noundef %39, ptr noundef %40, i32 noundef %41, i32 noundef 4, i32 noundef %42)
  %44 = load i32, ptr %9, align 4
  %45 = add i32 %44, 4
  store i32 %45, ptr %9, align 4
  %46 = load ptr, ptr %7, align 8
  %47 = load i32, ptr @hf_cigi3_maritime_surface_conditions_control_surface_water_temp, align 4
  %48 = load ptr, ptr %5, align 8
  %49 = load i32, ptr %9, align 4
  %50 = load i32, ptr @cigi_byte_order, align 4
  %51 = call ptr @proto_tree_add_item(ptr noundef %46, i32 noundef %47, ptr noundef %48, i32 noundef %49, i32 noundef 4, i32 noundef %50)
  %52 = load i32, ptr %9, align 4
  %53 = add i32 %52, 4
  store i32 %53, ptr %9, align 4
  %54 = load ptr, ptr %7, align 8
  %55 = load i32, ptr @hf_cigi3_maritime_surface_conditions_control_surface_clarity, align 4
  %56 = load ptr, ptr %5, align 8
  %57 = load i32, ptr %9, align 4
  %58 = load i32, ptr @cigi_byte_order, align 4
  %59 = call ptr @proto_tree_add_item(ptr noundef %54, i32 noundef %55, ptr noundef %56, i32 noundef %57, i32 noundef 4, i32 noundef %58)
  %60 = load i32, ptr %9, align 4
  %61 = add i32 %60, 8
  store i32 %61, ptr %9, align 4
  %62 = load i32, ptr %9, align 4
  call void @llvm.lifetime.end.p0(i64 4, ptr %9) #5
  ret i32 %62
}