; Function Attrs: null_pointer_is_valid sspstrong uwtable
define internal noundef i32 @cigi3_add_maritime_surface_conditions_control(ptr noundef %0, ptr readnone captures(none) %1, ptr noundef %2, ptr readnone captures(none) %3) #0 {
  %5 = load i32, ptr @hf_cigi3_maritime_surface_conditions_control_entity_region_id, align 4
  %.b31 = load i1, ptr @cigi_byte_order, align 4
  %6 = select i1 %.b31, i32 -2147483648, i32 0
  %7 = tail call ptr @proto_tree_add_item(ptr noundef %2, i32 noundef %5, ptr noundef %0, i32 noundef 0, i32 noundef 2, i32 noundef %6)
  %8 = load i32, ptr @hf_cigi3_maritime_surface_conditions_control_surface_conditions_enable, align 4
  %.b30 = load i1, ptr @cigi_byte_order, align 4
  %9 = select i1 %.b30, i32 -2147483648, i32 0
  %10 = tail call ptr @proto_tree_add_item(ptr noundef %2, i32 noundef %8, ptr noundef %0, i32 noundef 2, i32 noundef 1, i32 noundef %9)
  %11 = load i32, ptr @hf_cigi3_maritime_surface_conditions_control_whitecap_enable, align 4
  %.b29 = load i1, ptr @cigi_byte_order, align 4
  %12 = select i1 %.b29, i32 -2147483648, i32 0
  %13 = tail call ptr @proto_tree_add_item(ptr noundef %2, i32 noundef %11, ptr noundef %0, i32 noundef 2, i32 noundef 1, i32 noundef %12)
  %14 = load i32, ptr @hf_cigi3_maritime_surface_conditions_control_scope, align 4
  %.b28 = load i1, ptr @cigi_byte_order, align 4
  %15 = select i1 %.b28, i32 -2147483648, i32 0
  %16 = tail call ptr @proto_tree_add_item(ptr noundef %2, i32 noundef %14, ptr noundef %0, i32 noundef 2, i32 noundef 1, i32 noundef %15)
  %17 = load i32, ptr @hf_cigi3_maritime_surface_conditions_control_sea_surface_height, align 4
  %.b27 = load i1, ptr @cigi_byte_order, align 4
  %18 = select i1 %.b27, i32 -2147483648, i32 0
  %19 = tail call ptr @proto_tree_add_item(ptr noundef %2, i32 noundef %17, ptr noundef %0, i32 noundef 6, i32 noundef 4, i32 noundef %18)
  %20 = load i32, ptr @hf_cigi3_maritime_surface_conditions_control_surface_water_temp, align 4
  %.b26 = load i1, ptr @cigi_byte_order, align 4
  %21 = select i1 %.b26, i32 -2147483648, i32 0
  %22 = tail call ptr @proto_tree_add_item(ptr noundef %2, i32 noundef %20, ptr noundef %0, i32 noundef 10, i32 noundef 4, i32 noundef %21)
  %23 = load i32, ptr @hf_cigi3_maritime_surface_conditions_control_surface_clarity, align 4
  %.b = load i1, ptr @cigi_byte_order, align 4
  %24 = select i1 %.b, i32 -2147483648, i32 0
  %25 = tail call ptr @proto_tree_add_item(ptr noundef %2, i32 noundef %23, ptr noundef %0, i32 noundef 14, i32 noundef 4, i32 noundef %24)
  ret i32 22
}